; ModuleID = '44/1162.c'
source_filename = "44/1162.c"
target datalayout = "e-m:e-p270:32:32-p271:32:32-p272:64:64-i64:64-f80:128-n8:16:32:64-S128"
target triple = "x86_64-pc-linux-gnu"

@.str = private unnamed_addr constant [3 x i8] c"%d\00", align 1
@.str.1 = private unnamed_addr constant [4 x i8] c"%d\0A\00", align 1

; Function Attrs: noinline nounwind uwtable
define dso_local i32 @reverse(i32 %0) #0 {
  %2 = alloca i32, align 4
  %3 = alloca i32, align 4
  %4 = alloca i32, align 4
  %5 = alloca i32, align 4
  %6 = alloca i32, align 4
  store i32 %0, i32* %3, align 4
  store i32 0, i32* %5, align 4
  %7 = load i32, i32* %3, align 4
  %8 = icmp slt i32 %7, 0
  br i1 %8, label %9, label %30

9:                                                ; preds = %1
  %10 = load i32, i32* %3, align 4
  %11 = sub nsw i32 0, %10
  store i32 %11, i32* %3, align 4
  store i32 0, i32* %6, align 4
  br label %12

12:                                               ; preds = %24, %9
  %13 = load i32, i32* %3, align 4
  %14 = icmp ne i32 %13, 0
  br i1 %14, label %15, label %27

15:                                               ; preds = %12
  %16 = load i32, i32* %3, align 4
  %17 = srem i32 %16, 10
  store i32 %17, i32* %4, align 4
  %18 = load i32, i32* %3, align 4
  %19 = sdiv i32 %18, 10
  store i32 %19, i32* %3, align 4
  %20 = load i32, i32* %4, align 4
  %21 = load i32, i32* %5, align 4
  %22 = mul nsw i32 %21, 10
  %23 = add nsw i32 %20, %22
  store i32 %23, i32* %5, align 4
  br label %24

24:                                               ; preds = %15
  %25 = load i32, i32* %6, align 4
  %26 = add nsw i32 %25, 1
  store i32 %26, i32* %6, align 4
  br label %12

27:                                               ; preds = %12
  %28 = load i32, i32* %5, align 4
  %29 = sub nsw i32 0, %28
  store i32 %29, i32* %2, align 4
  br label %48

30:                                               ; preds = %1
  store i32 0, i32* %6, align 4
  br label %31

31:                                               ; preds = %43, %30
  %32 = load i32, i32* %3, align 4
  %33 = icmp ne i32 %32, 0
  br i1 %33, label %34, label %46

34:                                               ; preds = %31
  %35 = load i32, i32* %3, align 4
  %36 = srem i32 %35, 10
  store i32 %36, i32* %4, align 4
  %37 = load i32, i32* %3, align 4
  %38 = sdiv i32 %37, 10
  store i32 %38, i32* %3, align 4
  %39 = load i32, i32* %4, align 4
  %40 = load i32, i32* %5, align 4
  %41 = mul nsw i32 %40, 10
  %42 = add nsw i32 %39, %41
  store i32 %42, i32* %5, align 4
  br label %43

43:                                               ; preds = %34
  %44 = load i32, i32* %6, align 4
  %45 = add nsw i32 %44, 1
  store i32 %45, i32* %6, align 4
  br label %31

46:                                               ; preds = %31
  %47 = load i32, i32* %5, align 4
  store i32 %47, i32* %2, align 4
  br label %48

48:                                               ; preds = %46, %27
  %49 = load i32, i32* %2, align 4
  ret i32 %49
}

; Function Attrs: noinline nounwind uwtable
define dso_local i32 @main() #0 {
  %1 = alloca i32, align 4
  %2 = alloca i32, align 4
  %3 = alloca [6 x i32], align 16
  %4 = alloca [6 x i32], align 16
  store i32 0, i32* %1, align 4
  store i32 0, i32* %2, align 4
  br label %5

5:                                                ; preds = %13, %0
  %6 = load i32, i32* %2, align 4
  %7 = icmp slt i32 %6, 6
  br i1 %7, label %8, label %16

8:                                                ; preds = %5
  %9 = load i32, i32* %2, align 4
  %10 = sext i32 %9 to i64
  %11 = getelementptr inbounds [6 x i32], [6 x i32]* %3, i64 0, i64 %10
  %12 = call i32 (i8*, ...) @__isoc99_scanf(i8* getelementptr inbounds ([3 x i8], [3 x i8]* @.str, i64 0, i64 0), i32* %11)
  br label %13

13:                                               ; preds = %8
  %14 = load i32, i32* %2, align 4
  %15 = add nsw i32 %14, 1
  store i32 %15, i32* %2, align 4
  br label %5

16:                                               ; preds = %5
  store i32 0, i32* %2, align 4
  br label %17

17:                                               ; preds = %34, %16
  %18 = load i32, i32* %2, align 4
  %19 = icmp slt i32 %18, 6
  br i1 %19, label %20, label %37

20:                                               ; preds = %17
  %21 = load i32, i32* %2, align 4
  %22 = sext i32 %21 to i64
  %23 = getelementptr inbounds [6 x i32], [6 x i32]* %3, i64 0, i64 %22
  %24 = load i32, i32* %23, align 4
  %25 = call i32 @reverse(i32 %24)
  %26 = load i32, i32* %2, align 4
  %27 = sext i32 %26 to i64
  %28 = getelementptr inbounds [6 x i32], [6 x i32]* %4, i64 0, i64 %27
  store i32 %25, i32* %28, align 4
  %29 = load i32, i32* %2, align 4
  %30 = sext i32 %29 to i64
  %31 = getelementptr inbounds [6 x i32], [6 x i32]* %4, i64 0, i64 %30
  %32 = load i32, i32* %31, align 4
  %33 = call i32 (i8*, ...) @printf(i8* getelementptr inbounds ([4 x i8], [4 x i8]* @.str.1, i64 0, i64 0), i32 %32)
  br label %34

34:                                               ; preds = %20
  %35 = load i32, i32* %2, align 4
  %36 = add nsw i32 %35, 1
  store i32 %36, i32* %2, align 4
  br label %17

37:                                               ; preds = %17
  %38 = load i32, i32* %1, align 4
  ret i32 %38
}

declare dso_local i32 @__isoc99_scanf(i8*, ...) #1

declare dso_local i32 @printf(i8*, ...) #1


!llvm.module.flags = !{!0}
!llvm.ident = !{!1}

!0 = !{i32 1, !"wchar_size", i32 4}
!1 = !{!"clang version 10.0.0-4ubuntu1 "}
